target datalayout = "e-m:e-p270:32:32-p271:32:32-p272:64:64-i64:64-i128:128-f80:128-n8:16:32:64-S128"
target triple = "x86_64-pc-linux-gnu"

%class.outputStream = type { ptr, i32, i8, i32, i64, %class.TimeStamp, ptr, i64 }
%class.TimeStamp = type { i64 }
%class.stringStream = type <{ %class.outputStream, ptr, i64, i64, i8, [48 x i8], [7 x i8] }>

@_ZTV12outputStream = linkonce_odr hidden unnamed_addr constant { [7 x ptr] } { [7 x ptr] [ptr null, ptr null, ptr @_ZN12outputStream5flushEv, ptr @__cxa_pure_virtual, ptr @_ZN12outputStream10rotate_logEbPS_, ptr @_ZN12outputStreamD2Ev, ptr @_ZN12outputStreamD0Ev] }, comdat, align 8
@_ZTV12stringStream = hidden unnamed_addr constant { [7 x ptr] } { [7 x ptr] [ptr null, ptr null, ptr @_ZN12outputStream5flushEv, ptr @_ZN12stringStream5writeEPKcm, ptr @_ZN12outputStream10rotate_logEbPS_, ptr @_ZN12stringStreamD1Ev, ptr @_ZN12stringStreamD0Ev] }, align 8

; Function Attrs: mustprogress nounwind uwtable
define linkonce_odr hidden void @_ZN9TimeStampC2Ev(ptr noundef nonnull align 8 dereferenceable(8) %0) unnamed_addr #1 comdat align 2 {
  %2 = alloca ptr, align 8
  store ptr %0, ptr %2, align 8
  %3 = load ptr, ptr %2, align 8
  %4 = getelementptr inbounds %class.TimeStamp, ptr %3, i32 0, i32 0
  store i64 0, ptr %4, align 8
  ret void
}

; Function Attrs: mustprogress nounwind uwtable
define hidden void @_ZN12stringStream14zero_terminateEv(ptr noundef nonnull align 8 dereferenceable(129) %0) #1 align 2 {
  %2 = alloca ptr, align 8
  store ptr %0, ptr %2, align 8
  %3 = load ptr, ptr %2, align 8
  %4 = getelementptr inbounds %class.stringStream, ptr %3, i32 0, i32 1
  %5 = load ptr, ptr %4, align 8
  %6 = getelementptr inbounds %class.stringStream, ptr %3, i32 0, i32 2
  %7 = load i64, ptr %6, align 8
  %8 = getelementptr inbounds i8, ptr %5, i64 %7
  store i8 0, ptr %8, align 1
  ret void
}

; Function Attrs: mustprogress nounwind uwtable
define hidden void @_ZN12stringStream4growEm(ptr noundef nonnull align 8 dereferenceable(129) %0, i64 noundef %1) #1 align 2 {
  %3 = alloca ptr, align 8
  %4 = alloca i64, align 8
  store ptr %0, ptr %3, align 8
  store i64 %1, ptr %4, align 8
  %5 = load ptr, ptr %3, align 8
  %6 = getelementptr inbounds %class.stringStream, ptr %5, i32 0, i32 1
  %7 = load ptr, ptr %6, align 8
  %8 = getelementptr inbounds %class.stringStream, ptr %5, i32 0, i32 5
  %9 = getelementptr inbounds [48 x i8], ptr %8, i64 0, i64 0
  %10 = icmp eq ptr %7, %9
  br i1 %10, label %11, label %29

11:                                               ; preds = %2
  %12 = load i64, ptr %4, align 8
  %13 = mul i64 %12, 1
  %14 = call noundef ptr @_Z12AllocateHeapm8MEMFLAGSN17AllocFailStrategy13AllocFailEnumE(i64 noundef %13, i8 noundef zeroext 9, i32 noundef 0)
  %15 = getelementptr inbounds %class.stringStream, ptr %5, i32 0, i32 1
  store ptr %14, ptr %15, align 8
  %16 = load i64, ptr %4, align 8
  %17 = getelementptr inbounds %class.stringStream, ptr %5, i32 0, i32 3
  store i64 %16, ptr %17, align 8
  %18 = getelementptr inbounds %class.stringStream, ptr %5, i32 0, i32 2
  %19 = load i64, ptr %18, align 8
  %20 = icmp ugt i64 %19, 0
  br i1 %20, label %21, label %28

21:                                               ; preds = %11
  %22 = getelementptr inbounds %class.stringStream, ptr %5, i32 0, i32 1
  %23 = load ptr, ptr %22, align 8
  %24 = getelementptr inbounds %class.stringStream, ptr %5, i32 0, i32 5
  %25 = getelementptr inbounds [48 x i8], ptr %24, i64 0, i64 0
  %26 = getelementptr inbounds %class.stringStream, ptr %5, i32 0, i32 2
  %27 = load i64, ptr %26, align 8
  call void @llvm.memcpy.p0.p0.i64(ptr align 1 %23, ptr align 1 %25, i64 %27, i1 false)
  br label %28

28:                                               ; preds = %21, %11
  call void @_ZN12stringStream14zero_terminateEv(ptr noundef nonnull align 8 dereferenceable(129) %5)
  br label %38

29:                                               ; preds = %2
  %30 = getelementptr inbounds %class.stringStream, ptr %5, i32 0, i32 1
  %31 = load ptr, ptr %30, align 8
  %32 = load i64, ptr %4, align 8
  %33 = mul i64 %32, 1
  %34 = call noundef ptr @_Z14ReallocateHeapPcm8MEMFLAGSN17AllocFailStrategy13AllocFailEnumE(ptr noundef %31, i64 noundef %33, i8 noundef zeroext 9, i32 noundef 0)
  %35 = getelementptr inbounds %class.stringStream, ptr %5, i32 0, i32 1
  store ptr %34, ptr %35, align 8
  %36 = load i64, ptr %4, align 8
  %37 = getelementptr inbounds %class.stringStream, ptr %5, i32 0, i32 3
  store i64 %36, ptr %37, align 8
  br label %38

38:                                               ; preds = %29, %28
  ret void
}

; Function Attrs: mustprogress nounwind uwtable
define hidden void @_ZN12outputStreamC2Eb(ptr noundef nonnull align 8 dereferenceable(56) %0, i1 noundef zeroext %1) unnamed_addr #1 align 2 {
  %3 = alloca ptr, align 8
  %4 = alloca i8, align 1
  store ptr %0, ptr %3, align 8
  %5 = zext i1 %1 to i8
  store i8 %5, ptr %4, align 1
  %6 = load ptr, ptr %3, align 8
  store ptr getelementptr inbounds inrange(-16, 40) ({ [7 x ptr] }, ptr @_ZTV12outputStream, i32 0, i32 0, i32 2), ptr %6, align 8
  %7 = getelementptr inbounds %class.outputStream, ptr %6, i32 0, i32 5
  call void @_ZN9TimeStampC2Ev(ptr noundef nonnull align 8 dereferenceable(8) %7)
  %8 = getelementptr inbounds %class.outputStream, ptr %6, i32 0, i32 3
  store i32 0, ptr %8, align 8
  %9 = getelementptr inbounds %class.outputStream, ptr %6, i32 0, i32 4
  store i64 0, ptr %9, align 8
  %10 = getelementptr inbounds %class.outputStream, ptr %6, i32 0, i32 1
  store i32 0, ptr %10, align 8
  %11 = getelementptr inbounds %class.outputStream, ptr %6, i32 0, i32 2
  store i8 0, ptr %11, align 4
  %12 = getelementptr inbounds %class.outputStream, ptr %6, i32 0, i32 6
  store ptr null, ptr %12, align 8
  %13 = getelementptr inbounds %class.outputStream, ptr %6, i32 0, i32 7
  store i64 0, ptr %13, align 8
  %14 = load i8, ptr %4, align 1
  %15 = trunc i8 %14 to i1
  br i1 %15, label %16, label %18

16:                                               ; preds = %2
  %17 = getelementptr inbounds %class.outputStream, ptr %6, i32 0, i32 5
  call void @_ZN9TimeStamp6updateEv(ptr noundef nonnull align 8 dereferenceable(8) %17)
  br label %18

18:                                               ; preds = %16, %2
  ret void
}

; Function Attrs: mustprogress nounwind uwtable
define hidden void @_ZN12stringStreamC2Em(ptr noundef nonnull align 8 dereferenceable(129) %0, i64 noundef %1) unnamed_addr #1 align 2 {
  %3 = alloca ptr, align 8
  %4 = alloca i64, align 8
  store ptr %0, ptr %3, align 8
  store i64 %1, ptr %4, align 8
  %5 = load ptr, ptr %3, align 8
  call void @_ZN12outputStreamC2Eb(ptr noundef nonnull align 8 dereferenceable(56) %5, i1 noundef zeroext false)
  store ptr getelementptr inbounds inrange(-16, 40) ({ [7 x ptr] }, ptr @_ZTV12stringStream, i32 0, i32 0, i32 2), ptr %5, align 8
  %6 = getelementptr inbounds %class.stringStream, ptr %5, i32 0, i32 1
  %7 = getelementptr inbounds %class.stringStream, ptr %5, i32 0, i32 5
  %8 = getelementptr inbounds [48 x i8], ptr %7, i64 0, i64 0
  store ptr %8, ptr %6, align 8
  %9 = getelementptr inbounds %class.stringStream, ptr %5, i32 0, i32 2
  store i64 0, ptr %9, align 8
  %10 = getelementptr inbounds %class.stringStream, ptr %5, i32 0, i32 3
  store i64 48, ptr %10, align 8
  %11 = getelementptr inbounds %class.stringStream, ptr %5, i32 0, i32 4
  store i8 0, ptr %11, align 8
  %12 = load i64, ptr %4, align 8
  %13 = getelementptr inbounds %class.stringStream, ptr %5, i32 0, i32 3
  %14 = load i64, ptr %13, align 8
  %15 = icmp ugt i64 %12, %14
  br i1 %15, label %16, label %18

16:                                               ; preds = %2
  %17 = load i64, ptr %4, align 8
  call void @_ZN12stringStream4growEm(ptr noundef nonnull align 8 dereferenceable(129) %5, i64 noundef %17)
  br label %18

18:                                               ; preds = %16, %2
  call void @_ZN12stringStream14zero_terminateEv(ptr noundef nonnull align 8 dereferenceable(129) %5)
  ret void
}