; Function Attrs: mustprogress nounwind uwtable
define hidden void @_ZN12stringStreamC2Em(ptr noundef nonnull align 8 dereferenceable(129) %0, i64 noundef %1) unnamed_addr #0 align 2 {
  %3 = getelementptr inbounds i8, ptr %0, i64 16
  store i32 0, ptr %3, align 8
  %4 = getelementptr inbounds i8, ptr %0, i64 24
  %5 = getelementptr inbounds i8, ptr %0, i64 8
  store i32 0, ptr %5, align 8
  %6 = getelementptr inbounds i8, ptr %0, i64 12
  store i8 0, ptr %6, align 4
  tail call void @llvm.memset.p0.i64(ptr noundef nonnull align 8 dereferenceable(32) %4, i8 0, i64 32, i1 false)
  store ptr getelementptr inbounds inrange(-16, 40) (i8, ptr @_ZTV12stringStream, i64 16), ptr %0, align 8
  %7 = getelementptr inbounds i8, ptr %0, i64 56
  %8 = getelementptr inbounds i8, ptr %0, i64 81
  store ptr %8, ptr %7, align 8
  %9 = getelementptr inbounds i8, ptr %0, i64 64
  store i64 0, ptr %9, align 8
  %10 = getelementptr inbounds i8, ptr %0, i64 72
  store i64 48, ptr %10, align 8
  %11 = getelementptr inbounds i8, ptr %0, i64 80
  store i8 0, ptr %11, align 8
  %12 = icmp ugt i64 %1, 48
  br i1 %12, label %13, label %20

13:                                               ; preds = %2
  %14 = tail call noundef ptr @_Z12AllocateHeapm8MEMFLAGSN17AllocFailStrategy13AllocFailEnumE(i64 noundef %1, i8 noundef zeroext 9, i32 noundef 0) #21
  store ptr %14, ptr %7, align 8
  store i64 %1, ptr %10, align 8
  %15 = load i64, ptr %9, align 8
  %.not.i = icmp eq i64 %15, 0
  br i1 %.not.i, label %_ZN12stringStream4growEm.exit, label %16

16:                                               ; preds = %13
  tail call void @llvm.memcpy.p0.p0.i64(ptr align 1 %14, ptr nonnull align 1 %8, i64 %15, i1 false)
  %.pre.i = load ptr, ptr %7, align 8
  %.pre6.i = load i64, ptr %9, align 8
  br label %_ZN12stringStream4growEm.exit

_ZN12stringStream4growEm.exit:                    ; preds = %13, %16
  %17 = phi i64 [ %.pre6.i, %16 ], [ 0, %13 ]
  %18 = phi ptr [ %.pre.i, %16 ], [ %14, %13 ]
  %19 = getelementptr inbounds i8, ptr %18, i64 %17
  store i8 0, ptr %19, align 1
  %.pre = load ptr, ptr %7, align 8
  %.pre2 = load i64, ptr %9, align 8
  br label %20

20:                                               ; preds = %_ZN12stringStream4growEm.exit, %2
  %21 = phi i64 [ %.pre2, %_ZN12stringStream4growEm.exit ], [ 0, %2 ]
  %22 = phi ptr [ %.pre, %_ZN12stringStream4growEm.exit ], [ %8, %2 ]
  %23 = getelementptr inbounds i8, ptr %22, i64 %21
  store i8 0, ptr %23, align 1
  ret void
}